; Function Attrs: mustprogress nounwind uwtable
define internal noundef zeroext i1 @"_ZNSt17_Function_handlerIFbN4llvm9Attribute8AttrKindEEZNKS0_12CallLowering22getAttributesForArgIdxERKNS0_8CallBaseEjE3$_0E9_M_invokeERKSt9_Any_dataOS2_"(ptr nocapture noundef nonnull readonly align 8 dereferenceable(16) %0, ptr nocapture noundef nonnull readonly align 4 dereferenceable(4) %1) #1 align 2 {
  %.val = load ptr, ptr %0, align 8
  %3 = getelementptr inbounds i8, ptr %0, i64 8
  %.val2 = load ptr, ptr %3, align 8
  %.val3 = load i32, ptr %1, align 4
  %.val2.val = load i32, ptr %.val2, align 4
  %4 = tail call noundef zeroext i1 @_ZNK4llvm8CallBase12paramHasAttrEjNS_9Attribute8AttrKindE(ptr noundef nonnull align 8 dereferenceable(88) %.val, i32 noundef %.val2.val, i32 noundef %.val3) #18
  ret i1 %4
}